(lp0
S'../pic/0000fdee4208b8b7e12074c920bc6166-0.jpg'
p1
aS'../pic/00adea05424ecda09e2a51f69b2490b1-0.jpg'
p2
aS'../pic/00c0f87fd03b993d84b0e59b6dd7b07c-0.jpg'
p3
aS'../pic/00c72d27bc40acf0b55bc4fa6da50d45-1.jpg'
p4
a.